; Function Attrs: mustprogress uwtable
define internal noundef i32 @_ZN12_GLOBAL__N_130cmFileCommandCurlDebugCallbackEPv13curl_infotypePcmS0_(ptr readnone captures(none) %0, i32 noundef %1, ptr noundef %2, i64 noundef %3, ptr noundef %4) #5 {
  %6 = alloca [128 x i8], align 16
  switch i32 %1, label %30 [
    i32 0, label %7
    i32 1, label %7
    i32 2, label %7
    i32 3, label %16
    i32 4, label %16
    i32 5, label %16
    i32 6, label %16
  ]

7:                                                ; preds = %5, %5, %5
  %8 = getelementptr inbounds nuw i8, ptr %2, i64 %3
  %9 = getelementptr inbounds nuw i8, ptr %4, i64 8
  %10 = load ptr, ptr %9, align 8, !tbaa !68
  %11 = load ptr, ptr %4, align 8, !tbaa !68
  %12 = ptrtoint ptr %10 to i64
  %13 = ptrtoint ptr %11 to i64
  %14 = sub i64 %12, %13
  %15 = getelementptr inbounds i8, ptr %11, i64 %14
  tail call void @_ZNSt6vectorIcSaIcEE15_M_range_insertIPcEEvN9__gnu_cxx17__normal_iteratorIS3_S1_EET_S7_St20forward_iterator_tag(ptr noundef nonnull align 8 dereferenceable(24) %4, ptr %15, ptr noundef %2, ptr noundef %8)
  br label %30

16:                                               ; preds = %5, %5, %5, %5
  call void @llvm.lifetime.start.p0(i64 128, ptr nonnull %6) #29
  %17 = call i32 (ptr, i64, ptr, ...) @snprintf(ptr noundef nonnull dereferenceable(1) %6, i64 noundef 128, ptr noundef nonnull @.str.152, i64 noundef %3) #29
  %18 = icmp sgt i32 %17, 0
  br i1 %18, label %19, label %29

19:                                               ; preds = %16
  %20 = zext nneg i32 %17 to i64
  %21 = getelementptr inbounds nuw i8, ptr %6, i64 %20
  %22 = getelementptr inbounds nuw i8, ptr %4, i64 8
  %23 = load ptr, ptr %22, align 8, !tbaa !68
  %24 = load ptr, ptr %4, align 8, !tbaa !68
  %25 = ptrtoint ptr %23 to i64
  %26 = ptrtoint ptr %24 to i64
  %27 = sub i64 %25, %26
  %28 = getelementptr inbounds i8, ptr %24, i64 %27
  call void @_ZNSt6vectorIcSaIcEE15_M_range_insertIPcEEvN9__gnu_cxx17__normal_iteratorIS3_S1_EET_S7_St20forward_iterator_tag(ptr noundef nonnull align 8 dereferenceable(24) %4, ptr %28, ptr noundef nonnull %6, ptr noundef nonnull %21)
  br label %29

29:                                               ; preds = %19, %16
  call void @llvm.lifetime.end.p0(i64 128, ptr nonnull %6) #29
  br label %30

30:                                               ; preds = %5, %29, %7
  ret i32 0
}